target datalayout = "e-m:e-p270:32:32-p271:32:32-p272:64:64-i64:64-i128:128-f80:128-n8:16:32:64-S128"
target triple = "x86_64-pc-linux-gnu"

%struct._lv_obj_t = type { ptr, ptr, ptr, ptr, ptr, %struct.lv_area_t, i32, i16, i16 }
%struct.lv_area_t = type { i32, i32, i32, i32 }
%struct._lv_obj_style_t = type { ptr, i32 }

; Function Attrs: nounwind uwtable
define i32 @lv_obj_get_local_style_prop(ptr noundef %0, i8 noundef zeroext %1, ptr noundef %2, i32 noundef %3) #0 {
  %5 = alloca i32, align 4
  %6 = alloca ptr, align 8
  %7 = alloca i8, align 1
  %8 = alloca ptr, align 8
  %9 = alloca i32, align 4
  %10 = alloca i32, align 4
  %11 = alloca i32, align 4
  store ptr %0, ptr %6, align 8, !tbaa !30
  store i8 %1, ptr %7, align 1, !tbaa !43
  store ptr %2, ptr %8, align 8, !tbaa !31
  store i32 %3, ptr %9, align 4, !tbaa !32
  call void @llvm.lifetime.start.p0(i64 4, ptr %10) #6
  store i32 0, ptr %10, align 4, !tbaa !32
  br label %12

12:                                               ; preds = %58, %4
  %13 = load i32, ptr %10, align 4, !tbaa !32
  %14 = load ptr, ptr %6, align 8, !tbaa !30
  %15 = getelementptr inbounds nuw %struct._lv_obj_t, ptr %14, i32 0, i32 8
  %16 = load i16, ptr %15, align 2
  %17 = lshr i16 %16, 4
  %18 = and i16 %17, 63
  %19 = zext i16 %18 to i32
  %20 = icmp ult i32 %13, %19
  br i1 %20, label %21, label %61

21:                                               ; preds = %12
  %22 = load ptr, ptr %6, align 8, !tbaa !30
  %23 = getelementptr inbounds nuw %struct._lv_obj_t, ptr %22, i32 0, i32 3
  %24 = load ptr, ptr %23, align 8, !tbaa !33
  %25 = load i32, ptr %10, align 4, !tbaa !32
  %26 = zext i32 %25 to i64
  %27 = getelementptr inbounds nuw %struct._lv_obj_style_t, ptr %24, i64 %26
  %28 = getelementptr inbounds nuw %struct._lv_obj_style_t, ptr %27, i32 0, i32 1
  %29 = load i32, ptr %28, align 8
  %30 = lshr i32 %29, 24
  %31 = and i32 %30, 1
  %32 = icmp ne i32 %31, 0
  br i1 %32, label %33, label %57

33:                                               ; preds = %21
  %34 = load ptr, ptr %6, align 8, !tbaa !30
  %35 = getelementptr inbounds nuw %struct._lv_obj_t, ptr %34, i32 0, i32 3
  %36 = load ptr, ptr %35, align 8, !tbaa !33
  %37 = load i32, ptr %10, align 4, !tbaa !32
  %38 = zext i32 %37 to i64
  %39 = getelementptr inbounds nuw %struct._lv_obj_style_t, ptr %36, i64 %38
  %40 = getelementptr inbounds nuw %struct._lv_obj_style_t, ptr %39, i32 0, i32 1
  %41 = load i32, ptr %40, align 8
  %42 = and i32 %41, 16777215
  %43 = load i32, ptr %9, align 4, !tbaa !32
  %44 = icmp eq i32 %42, %43
  br i1 %44, label %45, label %57

45:                                               ; preds = %33
  %46 = load ptr, ptr %6, align 8, !tbaa !30
  %47 = getelementptr inbounds nuw %struct._lv_obj_t, ptr %46, i32 0, i32 3
  %48 = load ptr, ptr %47, align 8, !tbaa !33
  %49 = load i32, ptr %10, align 4, !tbaa !32
  %50 = zext i32 %49 to i64
  %51 = getelementptr inbounds nuw %struct._lv_obj_style_t, ptr %48, i64 %50
  %52 = getelementptr inbounds nuw %struct._lv_obj_style_t, ptr %51, i32 0, i32 0
  %53 = load ptr, ptr %52, align 8, !tbaa !45
  %54 = load i8, ptr %7, align 1, !tbaa !43
  %55 = load ptr, ptr %8, align 8, !tbaa !31
  %56 = call i32 @lv_style_get_prop(ptr noundef %53, i8 noundef zeroext %54, ptr noundef %55)
  store i32 %56, ptr %5, align 4
  store i32 1, ptr %11, align 4
  br label %62

57:                                               ; preds = %33, %21
  br label %58

58:                                               ; preds = %57
  %59 = load i32, ptr %10, align 4, !tbaa !32
  %60 = add i32 %59, 1
  store i32 %60, ptr %10, align 4, !tbaa !32
  br label %12, !llvm.loop !104

61:                                               ; preds = %12
  store i32 0, ptr %5, align 4
  store i32 1, ptr %11, align 4
  br label %62

62:                                               ; preds = %61, %45
  call void @llvm.lifetime.end.p0(i64 4, ptr %10) #6
  %63 = load i32, ptr %5, align 4
  ret i32 %63
}