; Function Attrs: nounwind uwtable
define i32 @lv_obj_get_local_style_prop(ptr noundef readonly captures(none) %0, i8 noundef zeroext %1, ptr noundef %2, i32 noundef %3) local_unnamed_addr #0 {
  %5 = getelementptr inbounds nuw i8, ptr %0, i64 62
  %6 = load i16, ptr %5, align 2
  %7 = lshr i16 %6, 4
  %8 = and i16 %7, 63
  %.not15 = icmp eq i16 %8, 0
  br i1 %.not15, label %.loopexit, label %.lr.ph

.lr.ph:                                           ; preds = %4
  %9 = getelementptr inbounds nuw i8, ptr %0, i64 24
  %10 = load ptr, ptr %9, align 8, !tbaa !38
  %wide.trip.count = zext nneg i16 %8 to i64
  br label %12

11:                                               ; preds = %12
  %indvars.iv.next = add nuw nsw i64 %indvars.iv, 1
  %exitcond.not = icmp eq i64 %indvars.iv.next, %wide.trip.count
  br i1 %exitcond.not, label %.loopexit, label %12, !llvm.loop !95

12:                                               ; preds = %.lr.ph, %11
  %indvars.iv = phi i64 [ 0, %.lr.ph ], [ %indvars.iv.next, %11 ]
  %13 = getelementptr inbounds nuw %struct._lv_obj_style_t, ptr %10, i64 %indvars.iv
  %14 = getelementptr inbounds nuw i8, ptr %13, i64 8
  %15 = load i32, ptr %14, align 8
  %16 = and i32 %15, 16777216
  %.not = icmp ne i32 %16, 0
  %17 = and i32 %15, 16777215
  %18 = icmp eq i32 %17, %3
  %or.cond = and i1 %.not, %18
  br i1 %or.cond, label %19, label %11

19:                                               ; preds = %12
  %20 = load ptr, ptr %13, align 8, !tbaa !49
  %21 = tail call i32 @lv_style_get_prop(ptr noundef %20, i8 noundef zeroext %1, ptr noundef %2) #9
  br label %.loopexit

.loopexit:                                        ; preds = %11, %4, %19
  %.012 = phi i32 [ %21, %19 ], [ 0, %4 ], [ 0, %11 ]
  ret i32 %.012
}